; Function Attrs: nounwind uwtable
define ptr @l_Int_Cooper_resolve__left__inv(ptr noundef %0, ptr noundef %1, ptr noundef %2) local_unnamed_addr #0 {
  %4 = ptrtoint ptr %2 to i64
  %5 = and i64 %4, 1
  %.not.i6 = icmp eq i64 %5, 0
  br i1 %.not.i6, label %.critedge.i, label %6, !prof !4

6:                                                ; preds = %3
  %7 = ptrtoint ptr %1 to i64
  %8 = and i64 %7, 1
  %.not7.i = icmp eq i64 %8, 0
  br i1 %.not7.i, label %.critedge.i, label %9, !prof !4

9:                                                ; preds = %6
  %10 = shl i64 %4, 31
  %11 = ashr i64 %10, 32
  %12 = shl i64 %7, 31
  %13 = ashr i64 %12, 32
  %14 = add nsw i64 %11, %13
  %15 = add nsw i64 %14, 2147483648
  %16 = icmp ult i64 %15, 4294967296
  br i1 %16, label %17, label %22, !prof !5

17:                                               ; preds = %9
  %18 = shl nsw i64 %14, 1
  %19 = and i64 %18, 8589934590
  %20 = or disjoint i64 %19, 1
  %21 = inttoptr i64 %20 to ptr
  br label %lean_int_add.exit

22:                                               ; preds = %9
  %23 = tail call ptr @lean_big_int64_to_int(i64 noundef range(i64 -4611686016279904256, -9223372036854775808) %14) #4
  br label %lean_int_add.exit

.critedge.i:                                      ; preds = %6, %3
  %24 = tail call ptr @lean_int_big_add(ptr noundef %2, ptr noundef %1) #4
  br label %lean_int_add.exit

lean_int_add.exit:                                ; preds = %17, %22, %.critedge.i
  %.0.i = phi ptr [ %24, %.critedge.i ], [ %21, %17 ], [ %23, %22 ]
  %25 = ptrtoint ptr %.0.i to i64
  %26 = and i64 %25, 1
  %.not.i7 = icmp eq i64 %26, 0
  br i1 %.not.i7, label %53, label %27, !prof !4

27:                                               ; preds = %lean_int_add.exit
  %28 = ptrtoint ptr %0 to i64
  %29 = and i64 %28, 1
  %.not18.i = icmp eq i64 %29, 0
  br i1 %.not18.i, label %lean_int_ediv.exit.thread11, label %31, !prof !4

lean_int_ediv.exit.thread11:                      ; preds = %27
  %30 = tail call ptr @lean_int_big_ediv(ptr noundef %.0.i, ptr noundef %0) #4
  br label %lean_dec.exit

31:                                               ; preds = %27
  %32 = lshr i64 %28, 1
  %33 = trunc i64 %32 to i32
  %34 = icmp eq i32 %33, 0
  br i1 %34, label %lean_dec.exit, label %35

35:                                               ; preds = %31
  %sext.i = shl i64 %32, 32
  %36 = ashr exact i64 %sext.i, 32
  %37 = shl i64 %25, 31
  %38 = ashr i64 %37, 32
  %39 = sdiv i64 %38, %36
  %40 = srem i64 %38, %36
  %41 = icmp slt i64 %40, 0
  %42 = icmp sgt i32 %33, 0
  %.v.i = select i1 %42, i64 -1, i64 1
  %43 = select i1 %41, i64 %.v.i, i64 0
  %.016.i = add nsw i64 %43, %39
  %44 = add nsw i64 %.016.i, 2147483648
  %45 = icmp ult i64 %44, 4294967296
  br i1 %45, label %46, label %51, !prof !5

46:                                               ; preds = %35
  %47 = shl nsw i64 %.016.i, 1
  %48 = and i64 %47, 8589934590
  %49 = or disjoint i64 %48, 1
  %50 = inttoptr i64 %49 to ptr
  br label %lean_dec.exit

51:                                               ; preds = %35
  %52 = tail call ptr @lean_big_int64_to_int(i64 noundef range(i64 -4611686016279904256, -9223372036854775808) %.016.i) #4
  br label %lean_dec.exit

53:                                               ; preds = %lean_int_add.exit
  %54 = tail call ptr @lean_int_big_ediv(ptr noundef %.0.i, ptr noundef %0) #4
  %55 = load i32, ptr %.0.i, align 4, !tbaa !6
  %56 = icmp sgt i32 %55, 1
  br i1 %56, label %57, label %59, !prof !5

57:                                               ; preds = %53
  %58 = add nsw i32 %55, -1
  store i32 %58, ptr %.0.i, align 4, !tbaa !6
  br label %lean_dec.exit

59:                                               ; preds = %53
  %.not.i = icmp eq i32 %55, 0
  br i1 %.not.i, label %lean_dec.exit, label %60

60:                                               ; preds = %59
  tail call void @lean_dec_ref_cold(ptr noundef nonnull %.0.i) #4
  br label %lean_dec.exit

lean_dec.exit:                                    ; preds = %51, %46, %31, %60, %59, %57, %lean_int_ediv.exit.thread11
  %.1.i10 = phi ptr [ %30, %lean_int_ediv.exit.thread11 ], [ %54, %57 ], [ %54, %59 ], [ %54, %60 ], [ %52, %51 ], [ %50, %46 ], [ inttoptr (i64 1 to ptr), %31 ]
  ret ptr %.1.i10
}